(lp1
(dp2
S'album'
p3
S'album_number_1'
p4
sS'title'
p5
S'Test of MP3 File'
p6
sS'track'
p7
S'1'
sS'artist'
p8
S'Me'
p9
sS'pos'
p10
S'0'
sS'genre'
p11
S'Other'
p12
sS'file'
p13
S'01_playlist/01_album/01_file.mp3'
p14
sS'time'
p15
S'12'
p16
sS'date'
p17
S'2006'
p18
sS'id'
p19
S'330'
p20
sa(dp21
S'album'
p22
S'album_number_1'
p23
sS'title'
p24
S'Test of MP3 File'
p25
sS'track'
p26
S'1'
sS'artist'
p27
S'Me'
p28
sS'pos'
p29
S'1'
sS'genre'
p30
S'Other'
p31
sS'file'
p32
S'01_playlist/01_album/02_file.mp3'
p33
sS'time'
p34
S'12'
p35
sS'date'
p36
S'2006'
p37
sS'id'
p38
S'331'
p39
sa(dp40
S'album'
p41
S'album_number_1'
p42
sS'title'
p43
S'Test of MP3 File'
p44
sS'track'
p45
S'1'
sS'artist'
p46
S'Me'
p47
sS'pos'
p48
S'2'
sS'genre'
p49
S'Other'
p50
sS'file'
p51
S'01_playlist/01_album/03_file.mp3'
p52
sS'time'
p53
S'12'
p54
sS'date'
p55
S'2006'
p56
sS'id'
p57
S'332'
p58
sa(dp59
S'album'
p60
S'album_number_2'
p61
sS'title'
p62
S'Test of MP3 File'
p63
sS'track'
p64
S'1'
sS'artist'
p65
S'Me'
p66
sS'pos'
p67
S'3'
sS'genre'
p68
S'Other'
p69
sS'file'
p70
S'01_playlist/02_album/01_file.mp3'
p71
sS'time'
p72
S'12'
p73
sS'date'
p74
S'2006'
p75
sS'id'
p76
S'333'
p77
sa(dp78
S'album'
p79
S'album_number_2'
p80
sS'title'
p81
S'Test of MP3 File'
p82
sS'track'
p83
S'1'
sS'artist'
p84
S'Me'
p85
sS'pos'
p86
S'4'
sS'genre'
p87
S'Other'
p88
sS'file'
p89
S'01_playlist/02_album/02_file.mp3'
p90
sS'time'
p91
S'12'
p92
sS'date'
p93
S'2006'
p94
sS'id'
p95
S'334'
p96
sa(dp97
S'album'
p98
S'album_number_2'
p99
sS'title'
p100
S'Test of MP3 File'
p101
sS'track'
p102
S'1'
sS'artist'
p103
S'Me'
p104
sS'pos'
p105
S'5'
sS'genre'
p106
S'Other'
p107
sS'file'
p108
S'01_playlist/02_album/03_file.mp3'
p109
sS'time'
p110
S'12'
p111
sS'date'
p112
S'2006'
p113
sS'id'
p114
S'335'
p115
sa(dp116
S'album'
p117
S'album_number_3'
p118
sS'title'
p119
S'Test of MP3 File'
p120
sS'track'
p121
S'1'
sS'artist'
p122
S'Me'
p123
sS'pos'
p124
S'6'
sS'genre'
p125
S'Other'
p126
sS'file'
p127
S'01_playlist/03_album/01_file.mp3'
p128
sS'time'
p129
S'12'
p130
sS'date'
p131
S'2006'
p132
sS'id'
p133
S'336'
p134
sa(dp135
S'album'
p136
S'album_number_3'
p137
sS'title'
p138
S'Test of MP3 File'
p139
sS'track'
p140
S'1'
sS'artist'
p141
S'Me'
p142
sS'pos'
p143
S'7'
sS'genre'
p144
S'Other'
p145
sS'file'
p146
S'01_playlist/03_album/02_file.mp3'
p147
sS'time'
p148
S'12'
p149
sS'date'
p150
S'2006'
p151
sS'id'
p152
S'337'
p153
sa(dp154
S'album'
p155
S'album_number_3'
p156
sS'title'
p157
S'Test of MP3 File'
p158
sS'track'
p159
S'1'
sS'artist'
p160
S'Me'
p161
sS'pos'
p162
S'8'
sS'genre'
p163
S'Other'
p164
sS'file'
p165
S'01_playlist/03_album/03_file.mp3'
p166
sS'time'
p167
S'12'
p168
sS'date'
p169
S'2006'
p170
sS'id'
p171
S'338'
p172
sa(dp173
S'album'
p174
S'album_number_4'
p175
sS'title'
p176
S'Test of MP3 File'
p177
sS'track'
p178
S'1'
sS'artist'
p179
S'Me'
p180
sS'pos'
p181
S'9'
sS'genre'
p182
S'Other'
p183
sS'file'
p184
S'01_playlist/04_album/01_file.mp3'
p185
sS'time'
p186
S'12'
p187
sS'date'
p188
S'2006'
p189
sS'id'
p190
S'339'
p191
sa(dp192
S'album'
p193
S'album_number_4'
p194
sS'title'
p195
S'Test of MP3 File'
p196
sS'track'
p197
S'1'
sS'artist'
p198
S'Me'
p199
sS'pos'
p200
S'10'
p201
sS'genre'
p202
S'Other'
p203
sS'file'
p204
S'01_playlist/04_album/02_file.mp3'
p205
sS'time'
p206
S'12'
p207
sS'date'
p208
S'2006'
p209
sS'id'
p210
S'340'
p211
sa(dp212
S'album'
p213
S'album_number_4'
p214
sS'title'
p215
S'Test of MP3 File'
p216
sS'track'
p217
S'1'
sS'artist'
p218
S'Me'
p219
sS'pos'
p220
S'11'
p221
sS'genre'
p222
S'Other'
p223
sS'file'
p224
S'01_playlist/04_album/03_file.mp3'
p225
sS'time'
p226
S'12'
p227
sS'date'
p228
S'2006'
p229
sS'id'
p230
S'341'
p231
sa(dp232
S'album'
p233
S'album_number_5'
p234
sS'title'
p235
S'Test of MP3 File'
p236
sS'track'
p237
S'1'
sS'artist'
p238
S'Me'
p239
sS'pos'
p240
S'12'
p241
sS'genre'
p242
S'Other'
p243
sS'file'
p244
S'01_playlist/05_album/01_file.mp3'
p245
sS'time'
p246
S'12'
p247
sS'date'
p248
S'2006'
p249
sS'id'
p250
S'342'
p251
sa(dp252
S'album'
p253
S'album_number_5'
p254
sS'title'
p255
S'Test of MP3 File'
p256
sS'track'
p257
S'1'
sS'artist'
p258
S'Me'
p259
sS'pos'
p260
S'13'
p261
sS'genre'
p262
S'Other'
p263
sS'file'
p264
S'01_playlist/05_album/02_file.mp3'
p265
sS'time'
p266
S'12'
p267
sS'date'
p268
S'2006'
p269
sS'id'
p270
S'343'
p271
sa(dp272
S'album'
p273
S'album_number_5'
p274
sS'title'
p275
S'Test of MP3 File'
p276
sS'track'
p277
S'1'
sS'artist'
p278
S'Me'
p279
sS'pos'
p280
S'14'
p281
sS'genre'
p282
S'Other'
p283
sS'file'
p284
S'01_playlist/05_album/03_file.mp3'
p285
sS'time'
p286
S'12'
p287
sS'date'
p288
S'2006'
p289
sS'id'
p290
S'344'
p291
sa.