(dp1
S'album'
p2
S'album_number_3'
p3
sS'title'
p4
S'Test of MP3 File'
p5
sS'track'
p6
S'1'
sS'artist'
p7
S'Me'
p8
sS'pos'
p9
S'8'
sS'genre'
p10
S'Other'
p11
sS'file'
p12
S'01_playlist/03_album/03_file.mp3'
p13
sS'time'
p14
S'12'
p15
sS'date'
p16
S'2006'
p17
sS'id'
p18
S'338'
p19
s.